; Function Attrs: nounwind uwtable
define noalias ptr @l_Lean_expandBrackedBindersAux(ptr noundef %0, ptr noundef readonly captures(none) %1, ptr noundef %2, ptr noundef readonly captures(none) %3, ptr noundef %4) local_unnamed_addr #0 {
  %6 = getelementptr i8, ptr %1, i64 8
  %.val = load i64, ptr %6, align 8, !tbaa !13
  %7 = shl i64 %.val, 1
  %8 = or disjoint i64 %7, 1
  %9 = inttoptr i64 %8 to ptr
  %10 = tail call ptr @l_Lean_expandBrackedBindersAux_loop(ptr noundef %0, ptr noundef %1, ptr noundef nonnull %9, ptr nonnull poison, ptr noundef %2, ptr noundef %3, ptr noundef %4)
  ret ptr %10
}